target datalayout = "e-m:e-p270:32:32-p271:32:32-p272:64:64-i64:64-i128:128-f80:128-n8:16:32:64-S128"
target triple = "x86_64-pc-linux-gnu"

%union.pthread_mutex_t = type { %struct.__pthread_mutex_s }
%struct.__pthread_mutex_s = type { i32, i32, i32, i32, i32, i16, i16, %struct.__pthread_internal_list }
%struct.__pthread_internal_list = type { ptr, ptr }
%struct.___itt_global = type { [8 x i8], i64, i64, i64, i64, i64, i64, %union.pthread_mutex_t, ptr, ptr, ptr, ptr, ptr, ptr, ptr, ptr, i32, ptr, i32, ptr, ptr }

@__itt_thread_set_name_ptr__3_0 = hidden global ptr @__itt_thread_set_name_init_3_0, align 8
@__itt_init_ittlib_ptr = internal global ptr @__itt_init_ittlib, align 8

; Function Attrs: nounwind uwtable
define internal void @__itt_thread_set_name_init_3_0(ptr noundef %0) #0 {
  %2 = alloca ptr, align 8
  store ptr %0, ptr %2, align 8, !tbaa !22
  %3 = load volatile i64, ptr getelementptr inbounds nuw (%struct.___itt_global, ptr @__itt__ittapi_global, i32 0, i32 4), align 8, !tbaa !3
  %4 = icmp ne i64 %3, 0
  br i1 %4, label %11, label %5

5:                                                ; preds = %1
  %6 = load ptr, ptr getelementptr inbounds nuw (%struct.___itt_global, ptr @__itt__ittapi_global, i32 0, i32 13), align 8, !tbaa !20
  %7 = icmp eq ptr %6, null
  br i1 %7, label %8, label %11

8:                                                ; preds = %5
  %9 = load ptr, ptr @__itt_init_ittlib_ptr, align 8, !tbaa !21
  %10 = call i32 %9(ptr noundef null, i32 noundef -1)
  br label %11

11:                                               ; preds = %8, %5, %1
  %12 = load ptr, ptr @__itt_thread_set_name_ptr__3_0, align 8, !tbaa !21
  %13 = icmp ne ptr %12, null
  br i1 %13, label %14, label %20

14:                                               ; preds = %11
  %15 = load ptr, ptr @__itt_thread_set_name_ptr__3_0, align 8, !tbaa !21
  %16 = icmp ne ptr %15, @__itt_thread_set_name_init_3_0
  br i1 %16, label %17, label %20

17:                                               ; preds = %14
  %18 = load ptr, ptr @__itt_thread_set_name_ptr__3_0, align 8, !tbaa !21
  %19 = load ptr, ptr %2, align 8, !tbaa !22
  call void %18(ptr noundef %19)
  br label %20

20:                                               ; preds = %17, %14, %11
  ret void
}